; Function Attrs: mustprogress nofree norecurse nosync nounwind willreturn memory(readwrite, inaccessiblemem: none) uwtable
define void @_ZN10open_spiel9coin_game9CoinState8SetFieldESt4pairIiiEc(ptr nocapture noundef nonnull readonly align 8 dereferenceable(288) %0, i64 %1, i8 noundef signext %2) local_unnamed_addr #8 align 2 {
  %.sroa.0.0.extract.trunc = trunc i64 %1 to i32
  %.sroa.2.0.extract.shift = lshr i64 %1, 32
  %.sroa.2.0.extract.trunc = trunc nuw i64 %.sroa.2.0.extract.shift to i32
  %4 = getelementptr inbounds nuw i8, ptr %0, i64 240
  %5 = getelementptr inbounds nuw i8, ptr %0, i64 64
  %6 = load ptr, ptr %5, align 8
  %7 = getelementptr inbounds nuw i8, ptr %6, i64 288
  %8 = load i32, ptr %7, align 8
  %9 = mul nsw i32 %8, %.sroa.0.0.extract.trunc
  %10 = add nsw i32 %9, %.sroa.2.0.extract.trunc
  %11 = sext i32 %10 to i64
  %12 = load ptr, ptr %4, align 8
  %13 = getelementptr inbounds i8, ptr %12, i64 %11
  store i8 %2, ptr %13, align 1
  ret void
}